target datalayout = "e-m:e-p270:32:32-p271:32:32-p272:64:64-i64:64-i128:128-f80:128-n8:16:32:64-S128"
target triple = "x86_64-pc-linux-gnu"

%struct.tempfile = type { %struct.volatile_list_head, i32, ptr, i32, %struct.strbuf, ptr }
%struct.volatile_list_head = type { ptr, ptr }
%struct.strbuf = type { i64, i64, ptr }
%struct.reftable_tmpfile = type { ptr, i32, ptr }

; Function Attrs: inlinehint nounwind uwtable
define internal ptr @mks_tempfile(ptr noundef %0) #2 {
  %2 = alloca ptr, align 8
  store ptr %0, ptr %2, align 8, !tbaa !9
  %3 = load ptr, ptr %2, align 8, !tbaa !9
  %4 = call ptr @mks_tempfile_sm(ptr noundef %3, i32 noundef 0, i32 noundef 384)
  ret ptr %4
}

; Function Attrs: nounwind uwtable
define dso_local i32 @tmpfile_from_pattern(ptr noundef %0, ptr noundef %1) #0 {
  %3 = alloca i32, align 4
  %4 = alloca ptr, align 8
  %5 = alloca ptr, align 8
  %6 = alloca ptr, align 8
  %7 = alloca i32, align 4
  store ptr %0, ptr %4, align 8, !tbaa !4
  store ptr %1, ptr %5, align 8, !tbaa !9
  call void @llvm.lifetime.start.p0(i64 8, ptr %6) #7
  %8 = load ptr, ptr %5, align 8, !tbaa !9
  %9 = call ptr @mks_tempfile(ptr noundef %8)
  store ptr %9, ptr %6, align 8, !tbaa !11
  %10 = load ptr, ptr %6, align 8, !tbaa !11
  %11 = icmp ne ptr %10, null
  br i1 %11, label %13, label %12

12:                                               ; preds = %2
  store i32 -2, ptr %3, align 4
  store i32 1, ptr %7, align 4
  br label %28

13:                                               ; preds = %2
  %14 = load ptr, ptr %6, align 8, !tbaa !11
  %15 = getelementptr inbounds nuw %struct.tempfile, ptr %14, i32 0, i32 4
  %16 = getelementptr inbounds nuw %struct.strbuf, ptr %15, i32 0, i32 2
  %17 = load ptr, ptr %16, align 8, !tbaa !13
  %18 = load ptr, ptr %4, align 8, !tbaa !4
  %19 = getelementptr inbounds nuw %struct.reftable_tmpfile, ptr %18, i32 0, i32 0
  store ptr %17, ptr %19, align 8, !tbaa !21
  %20 = load ptr, ptr %6, align 8, !tbaa !11
  %21 = getelementptr inbounds nuw %struct.tempfile, ptr %20, i32 0, i32 1
  %22 = load volatile i32, ptr %21, align 8, !tbaa !23
  %23 = load ptr, ptr %4, align 8, !tbaa !4
  %24 = getelementptr inbounds nuw %struct.reftable_tmpfile, ptr %23, i32 0, i32 1
  store i32 %22, ptr %24, align 8, !tbaa !24
  %25 = load ptr, ptr %6, align 8, !tbaa !11
  %26 = load ptr, ptr %4, align 8, !tbaa !4
  %27 = getelementptr inbounds nuw %struct.reftable_tmpfile, ptr %26, i32 0, i32 2
  store ptr %25, ptr %27, align 8, !tbaa !25
  store i32 0, ptr %3, align 4
  store i32 1, ptr %7, align 4
  br label %28

28:                                               ; preds = %13, %12
  call void @llvm.lifetime.end.p0(i64 8, ptr %6) #7
  %29 = load i32, ptr %3, align 4
  ret i32 %29
}