; Function Attrs: nounwind uwtable
define dso_local range(i32 -2, 1) i32 @tmpfile_from_pattern(ptr noundef writeonly captures(none) %0, ptr noundef %1) local_unnamed_addr #0 {
  %3 = tail call ptr @mks_tempfile_sm(ptr noundef %1, i32 noundef 0, i32 noundef 384) #5
  %.not = icmp eq ptr %3, null
  br i1 %.not, label %11, label %4

4:                                                ; preds = %2
  %5 = getelementptr inbounds nuw i8, ptr %3, i64 56
  %6 = load ptr, ptr %5, align 8, !tbaa !4
  store ptr %6, ptr %0, align 8, !tbaa !16
  %7 = getelementptr inbounds nuw i8, ptr %3, i64 16
  %8 = load volatile i32, ptr %7, align 8, !tbaa !18
  %9 = getelementptr inbounds nuw i8, ptr %0, i64 8
  store i32 %8, ptr %9, align 8, !tbaa !19
  %10 = getelementptr inbounds nuw i8, ptr %0, i64 16
  store ptr %3, ptr %10, align 8, !tbaa !20
  br label %11

11:                                               ; preds = %2, %4
  %.0 = phi i32 [ 0, %4 ], [ -2, %2 ]
  ret i32 %.0
}